; Function Attrs: nofree nounwind null_pointer_is_valid sspstrong memory(read, inaccessiblemem: none) uwtable
define noundef ptr @xml_get_attrib(ptr noundef readonly captures(none) %0, ptr noundef readonly captures(none) %1) local_unnamed_addr #0 {
  %3 = getelementptr inbounds nuw i8, ptr %0, i64 16
  %.013 = load ptr, ptr %3, align 8
  %.not14 = icmp eq ptr %.013, null
  br i1 %.not14, label %._crit_edge, label %.lr.ph

.lr.ph:                                           ; preds = %2, %11
  %.015 = phi ptr [ %.0, %11 ], [ %.013, %2 ]
  %4 = load i32, ptr %.015, align 8
  %5 = icmp eq i32 %4, 4
  br i1 %5, label %6, label %11

6:                                                ; preds = %.lr.ph
  %7 = getelementptr inbounds nuw i8, ptr %.015, i64 56
  %8 = load ptr, ptr %7, align 8
  %.not11 = icmp eq ptr %8, null
  br i1 %.not11, label %11, label %9

9:                                                ; preds = %6
  %10 = tail call i32 @strcmp(ptr noundef nonnull dereferenceable(1) %8, ptr noundef %1) #12
  %.not12 = icmp eq i32 %10, 0
  br i1 %.not12, label %._crit_edge, label %11

11:                                               ; preds = %9, %6, %.lr.ph
  %12 = getelementptr inbounds nuw i8, ptr %.015, i64 40
  %.0 = load ptr, ptr %12, align 8
  %.not = icmp eq ptr %.0, null
  br i1 %.not, label %._crit_edge, label %.lr.ph, !llvm.loop !8

._crit_edge:                                      ; preds = %11, %9, %2
  %.0.lcssa = phi ptr [ null, %2 ], [ %.015, %9 ], [ null, %11 ]
  ret ptr %.0.lcssa
}